target datalayout = "e-m:e-p270:32:32-p271:32:32-p272:64:64-i64:64-i128:128-f80:128-n8:16:32:64-S128"
target triple = "x86_64-unknown-linux-gnu"

%struct.redisServer = type { i32, i64, ptr, ptr, ptr, i32, i32, i32, i32, i32, ptr, ptr, ptr, ptr, ptr, ptr, i32, i32, i64, i32, i32, i32, i32, ptr, i32, i32, [41 x i8], i32, i64, i32, i32, i32, ptr, ptr, i32, i32, i64, ptr, ptr, ptr, ptr, [2 x i32], i32, i32, i32, i32, i32, [16 x ptr], i32, ptr, ptr, i32, [8 x %struct.connListener], i32, %struct.connListener, ptr, ptr, ptr, ptr, ptr, ptr, ptr, ptr, ptr, ptr, i32, ptr, i32, ptr, [3 x %struct.pause_event], [256 x i8], ptr, i64, i32, i32, i32, i32, i64, i32, i32, i32, i32, i32, i64, i64, i64, i64, i64, i64, i64, i64, i64, double, i64, i64, i64, i64, i64, i64, i64, i64, i64, i64, i64, i64, i64, i64, i64, i64, i64, i64, i64, i64, double, i64, i64, i64, i64, i64, ptr, i64, i64, i64, %struct.malloc_stats, i64, i64, i64, i64, i64, i64, i64, i64, i64, i64, i64, i64, double, [4 x i64], i64, i64, i64, i64, i64, i64, i64, i64, i64, i64, [7 x %struct.anon], i64, i64, i64, i64, i64, i64, [4 x %struct.durationStats], i32, i32, i32, i32, i32, i32, i32, i32, i32, i32, i64, i32, i32, i32, i32, i64, i64, i32, i32, i32, i32, i32, ptr, [3 x %struct.clientBufferLimitsConfig], i32, i32, ptr, i32, i32, i32, i32, ptr, ptr, i32, i32, i64, i64, i64, i64, i64, i32, i32, ptr, i32, i32, i64, i64, i64, i64, i64, i32, i32, i64, i32, i32, i32, i32, i32, i32, i32, i32, ptr, i32, i64, i64, i64, i64, ptr, i32, ptr, i32, i32, i32, i64, i64, i64, i64, i32, i32, i32, i32, i32, i32, ptr, i32, i32, ptr, i32, i32, i32, [2 x i32], i32, %struct.redisOpArray, i32, ptr, i32, ptr, i32, i32, i32, i32, i32, i32, i32, [41 x i8], [41 x i8], i64, i64, i64, i64, i32, i32, ptr, i64, i64, i64, i32, i32, i32, i32, i32, i32, i32, i64, ptr, ptr, ptr, ptr, i32, i32, ptr, ptr, i32, i32, i64, i64, i64, ptr, i32, ptr, i64, i32, i32, i32, i64, i32, i32, i32, i32, ptr, i32, i32, [41 x i8], i64, i32, ptr, i32, i32, i64, i64, i32, i32, i32, i32, i32, i64, [3 x i32], i32, i32, i32, [9 x i32], ptr, ptr, i32, i64, ptr, ptr, i32, i32, i32, i32, i64, i64, i64, i64, i64, i64, i64, i64, i64, i64, i32, i32, i64, i64, i32, i64, i64, i64, i64, i64, ptr, ptr, i32, ptr, i32, i32, i32, i64, i64, ptr, ptr, i32, i32, i32, i32, i32, ptr, ptr, ptr, i32, i32, i32, i32, i32, i32, i32, i64, i32, i64, i32, i32, i32, i32, i32, i32, i32, i64, ptr, ptr, i64, ptr, i32, %struct.aclInfo, i32, i64, i32, i32, i32, %struct.redisTLSContextConfig, ptr, ptr, ptr, ptr, ptr, i64, i32, ptr, i32, i32, i32, i64, i32, ptr }
%struct.connListener = type { [16 x i32], i32, ptr, i32, i32, ptr, ptr }
%struct.pause_event = type { i32, i64 }
%struct.malloc_stats = type { i64, i64, i64, i64, i64 }
%struct.anon = type { i64, i64, [16 x i64], i32 }
%struct.durationStats = type { i64, i64, i64 }
%struct.clientBufferLimitsConfig = type { i64, i64, i64 }
%struct.redisOpArray = type { ptr, i32, i32 }
%struct.aclInfo = type { i64, i64, i64, i64 }
%struct.redisTLSContextConfig = type { ptr, ptr, ptr, ptr, ptr, ptr, ptr, ptr, ptr, ptr, ptr, ptr, i32, i32, i32, i32 }
%struct.listNode = type { ptr, ptr, ptr }
%struct.replBacklog = type { ptr, i64, ptr, i64, i64 }
%struct.list = type { ptr, ptr, ptr, ptr, ptr, i64 }
%struct.replBufBlock = type { i32, i64, i64, i64, i64, [0 x i8] }

@server = external global %struct.redisServer, align 8
@.str.3 = private unnamed_addr constant [14 x i8] c"replication.c\00", align 1
@.str.6 = private unnamed_addr constant [28 x i8] c"server.repl_backlog != NULL\00", align 1
@.str.7 = private unnamed_addr constant [48 x i8] c"first == server.repl_backlog->ref_repl_buf_node\00", align 1
@.str.8 = private unnamed_addr constant [47 x i8] c"server.repl_backlog->ref_repl_buf_node != NULL\00", align 1
@.str.9 = private unnamed_addr constant [42 x i8] c"fo->refcount == 0 && fo->used == fo->size\00", align 1

; Function Attrs: nounwind uwtable
define dso_local void @incrementalTrimReplicationBacklog(i64 noundef %max_blocks) #0 {
entry:
  %max_blocks.addr = alloca i64, align 8
  %trimmed_blocks = alloca i64, align 8
  %first = alloca ptr, align 8
  %fo = alloca ptr, align 8
  %next = alloca ptr, align 8
  %encoded_offset = alloca i64, align 8
  store i64 %max_blocks, ptr %max_blocks.addr, align 8
  %0 = load ptr, ptr getelementptr inbounds (%struct.redisServer, ptr @server, i32 0, i32 268), align 8
  %cmp = icmp ne ptr %0, null
  %lnot = xor i1 %cmp, true
  %lnot1 = xor i1 %lnot, true
  %lnot.ext = zext i1 %lnot1 to i32
  %conv = sext i32 %lnot.ext to i64
  %tobool = icmp ne i64 %conv, 0
  br i1 %tobool, label %cond.true, label %cond.false

cond.true:                                        ; preds = %entry
  br label %cond.end

cond.false:                                       ; preds = %entry
  call void @_serverAssert(ptr noundef @.str.6, ptr noundef @.str.3, i32 noundef 259)
  call void @abort() #13
  unreachable

1:                                                ; No predecessors!
  br label %cond.end

cond.end:                                         ; preds = %1, %cond.true
  store i64 0, ptr %trimmed_blocks, align 8
  br label %while.cond

while.cond:                                       ; preds = %cond.end66, %cond.end
  %2 = load ptr, ptr getelementptr inbounds (%struct.redisServer, ptr @server, i32 0, i32 268), align 8
  %histlen = getelementptr inbounds %struct.replBacklog, ptr %2, i32 0, i32 3
  %3 = load i64, ptr %histlen, align 8
  %4 = load i64, ptr getelementptr inbounds (%struct.redisServer, ptr @server, i32 0, i32 269), align 8
  %cmp2 = icmp sgt i64 %3, %4
  br i1 %cmp2, label %land.rhs, label %land.end

land.rhs:                                         ; preds = %while.cond
  %5 = load i64, ptr %trimmed_blocks, align 8
  %6 = load i64, ptr %max_blocks.addr, align 8
  %cmp4 = icmp ult i64 %5, %6
  br label %land.end

land.end:                                         ; preds = %land.rhs, %while.cond
  %7 = phi i1 [ false, %while.cond ], [ %cmp4, %land.rhs ]
  br i1 %7, label %while.body, label %while.end

while.body:                                       ; preds = %land.end
  %8 = load ptr, ptr getelementptr inbounds (%struct.redisServer, ptr @server, i32 0, i32 280), align 8
  %len = getelementptr inbounds %struct.list, ptr %8, i32 0, i32 5
  %9 = load i64, ptr %len, align 8
  %cmp6 = icmp ule i64 %9, 1
  br i1 %cmp6, label %if.then, label %if.end

if.then:                                          ; preds = %while.body
  br label %while.end

if.end:                                           ; preds = %while.body
  %10 = load ptr, ptr getelementptr inbounds (%struct.redisServer, ptr @server, i32 0, i32 280), align 8
  %head = getelementptr inbounds %struct.list, ptr %10, i32 0, i32 0
  %11 = load ptr, ptr %head, align 8
  store ptr %11, ptr %first, align 8
  %12 = load ptr, ptr %first, align 8
  %13 = load ptr, ptr getelementptr inbounds (%struct.redisServer, ptr @server, i32 0, i32 268), align 8
  %ref_repl_buf_node = getelementptr inbounds %struct.replBacklog, ptr %13, i32 0, i32 0
  %14 = load ptr, ptr %ref_repl_buf_node, align 8
  %cmp8 = icmp eq ptr %12, %14
  %lnot10 = xor i1 %cmp8, true
  %lnot12 = xor i1 %lnot10, true
  %lnot.ext13 = zext i1 %lnot12 to i32
  %conv14 = sext i32 %lnot.ext13 to i64
  %tobool15 = icmp ne i64 %conv14, 0
  br i1 %tobool15, label %cond.true16, label %cond.false17

cond.true16:                                      ; preds = %if.end
  br label %cond.end18

cond.false17:                                     ; preds = %if.end
  call void @_serverAssert(ptr noundef @.str.7, ptr noundef @.str.3, i32 noundef 275)
  call void @abort() #13
  unreachable

15:                                               ; No predecessors!
  br label %cond.end18

cond.end18:                                       ; preds = %15, %cond.true16
  %16 = load ptr, ptr %first, align 8
  %value = getelementptr inbounds %struct.listNode, ptr %16, i32 0, i32 2
  %17 = load ptr, ptr %value, align 8
  store ptr %17, ptr %fo, align 8
  %18 = load ptr, ptr %fo, align 8
  %refcount = getelementptr inbounds %struct.replBufBlock, ptr %18, i32 0, i32 0
  %19 = load i32, ptr %refcount, align 8
  %cmp19 = icmp ne i32 %19, 1
  br i1 %cmp19, label %if.then21, label %if.end22

if.then21:                                        ; preds = %cond.end18
  br label %while.end

if.end22:                                         ; preds = %cond.end18
  %20 = load ptr, ptr getelementptr inbounds (%struct.redisServer, ptr @server, i32 0, i32 268), align 8
  %histlen23 = getelementptr inbounds %struct.replBacklog, ptr %20, i32 0, i32 3
  %21 = load i64, ptr %histlen23, align 8
  %22 = load ptr, ptr %fo, align 8
  %size = getelementptr inbounds %struct.replBufBlock, ptr %22, i32 0, i32 3
  %23 = load i64, ptr %size, align 8
  %sub = sub nsw i64 %21, %23
  %24 = load i64, ptr getelementptr inbounds (%struct.redisServer, ptr @server, i32 0, i32 269), align 8
  %cmp24 = icmp sle i64 %sub, %24
  br i1 %cmp24, label %if.then26, label %if.end27

if.then26:                                        ; preds = %if.end22
  br label %while.end

if.end27:                                         ; preds = %if.end22
  %25 = load ptr, ptr %fo, align 8
  %refcount28 = getelementptr inbounds %struct.replBufBlock, ptr %25, i32 0, i32 0
  %26 = load i32, ptr %refcount28, align 8
  %dec = add nsw i32 %26, -1
  store i32 %dec, ptr %refcount28, align 8
  %27 = load i64, ptr %trimmed_blocks, align 8
  %inc = add i64 %27, 1
  store i64 %inc, ptr %trimmed_blocks, align 8
  %28 = load ptr, ptr %fo, align 8
  %size29 = getelementptr inbounds %struct.replBufBlock, ptr %28, i32 0, i32 3
  %29 = load i64, ptr %size29, align 8
  %30 = load ptr, ptr getelementptr inbounds (%struct.redisServer, ptr @server, i32 0, i32 268), align 8
  %histlen30 = getelementptr inbounds %struct.replBacklog, ptr %30, i32 0, i32 3
  %31 = load i64, ptr %histlen30, align 8
  %sub31 = sub i64 %31, %29
  store i64 %sub31, ptr %histlen30, align 8
  %32 = load ptr, ptr %first, align 8
  %next32 = getelementptr inbounds %struct.listNode, ptr %32, i32 0, i32 1
  %33 = load ptr, ptr %next32, align 8
  store ptr %33, ptr %next, align 8
  %34 = load ptr, ptr %next, align 8
  %35 = load ptr, ptr getelementptr inbounds (%struct.redisServer, ptr @server, i32 0, i32 268), align 8
  %ref_repl_buf_node33 = getelementptr inbounds %struct.replBacklog, ptr %35, i32 0, i32 0
  store ptr %34, ptr %ref_repl_buf_node33, align 8
  %36 = load ptr, ptr getelementptr inbounds (%struct.redisServer, ptr @server, i32 0, i32 268), align 8
  %ref_repl_buf_node34 = getelementptr inbounds %struct.replBacklog, ptr %36, i32 0, i32 0
  %37 = load ptr, ptr %ref_repl_buf_node34, align 8
  %cmp35 = icmp ne ptr %37, null
  %lnot37 = xor i1 %cmp35, true
  %lnot39 = xor i1 %lnot37, true
  %lnot.ext40 = zext i1 %lnot39 to i32
  %conv41 = sext i32 %lnot.ext40 to i64
  %tobool42 = icmp ne i64 %conv41, 0
  br i1 %tobool42, label %cond.true43, label %cond.false44

cond.true43:                                      ; preds = %if.end27
  br label %cond.end45

cond.false44:                                     ; preds = %if.end27
  call void @_serverAssert(ptr noundef @.str.8, ptr noundef @.str.3, i32 noundef 292)
  call void @abort() #13
  unreachable

38:                                               ; No predecessors!
  br label %cond.end45

cond.end45:                                       ; preds = %38, %cond.true43
  %39 = load ptr, ptr %next, align 8
  %value46 = getelementptr inbounds %struct.listNode, ptr %39, i32 0, i32 2
  %40 = load ptr, ptr %value46, align 8
  %refcount47 = getelementptr inbounds %struct.replBufBlock, ptr %40, i32 0, i32 0
  %41 = load i32, ptr %refcount47, align 8
  %inc48 = add nsw i32 %41, 1
  store i32 %inc48, ptr %refcount47, align 8
  %42 = load ptr, ptr %fo, align 8
  %repl_offset = getelementptr inbounds %struct.replBufBlock, ptr %42, i32 0, i32 2
  %43 = load i64, ptr %repl_offset, align 8
  %call = call i64 @intrev64(i64 noundef %43)
  store i64 %call, ptr %encoded_offset, align 8
  %44 = load ptr, ptr getelementptr inbounds (%struct.redisServer, ptr @server, i32 0, i32 268), align 8
  %blocks_index = getelementptr inbounds %struct.replBacklog, ptr %44, i32 0, i32 2
  %45 = load ptr, ptr %blocks_index, align 8
  %call49 = call i32 @raxRemove(ptr noundef %45, ptr noundef %encoded_offset, i64 noundef 8, ptr noundef null)
  %46 = load ptr, ptr %fo, align 8
  %refcount50 = getelementptr inbounds %struct.replBufBlock, ptr %46, i32 0, i32 0
  %47 = load i32, ptr %refcount50, align 8
  %cmp51 = icmp eq i32 %47, 0
  br i1 %cmp51, label %land.rhs53, label %land.end57

land.rhs53:                                       ; preds = %cond.end45
  %48 = load ptr, ptr %fo, align 8
  %used = getelementptr inbounds %struct.replBufBlock, ptr %48, i32 0, i32 4
  %49 = load i64, ptr %used, align 8
  %50 = load ptr, ptr %fo, align 8
  %size54 = getelementptr inbounds %struct.replBufBlock, ptr %50, i32 0, i32 3
  %51 = load i64, ptr %size54, align 8
  %cmp55 = icmp eq i64 %49, %51
  br label %land.end57

land.end57:                                       ; preds = %land.rhs53, %cond.end45
  %52 = phi i1 [ false, %cond.end45 ], [ %cmp55, %land.rhs53 ]
  %lnot58 = xor i1 %52, true
  %lnot60 = xor i1 %lnot58, true
  %lnot.ext61 = zext i1 %lnot60 to i32
  %conv62 = sext i32 %lnot.ext61 to i64
  %tobool63 = icmp ne i64 %conv62, 0
  br i1 %tobool63, label %cond.true64, label %cond.false65

cond.true64:                                      ; preds = %land.end57
  br label %cond.end66

cond.false65:                                     ; preds = %land.end57
  call void @_serverAssert(ptr noundef @.str.9, ptr noundef @.str.3, i32 noundef 302)
  call void @abort() #13
  unreachable

53:                                               ; No predecessors!
  br label %cond.end66

cond.end66:                                       ; preds = %53, %cond.true64
  %54 = load ptr, ptr %fo, align 8
  %size67 = getelementptr inbounds %struct.replBufBlock, ptr %54, i32 0, i32 3
  %55 = load i64, ptr %size67, align 8
  %add = add i64 %55, 24
  %add68 = add i64 %add, 40
  %56 = load i64, ptr getelementptr inbounds (%struct.redisServer, ptr @server, i32 0, i32 279), align 8
  %sub69 = sub i64 %56, %add68
  store i64 %sub69, ptr getelementptr inbounds (%struct.redisServer, ptr @server, i32 0, i32 279), align 8
  %57 = load ptr, ptr getelementptr inbounds (%struct.redisServer, ptr @server, i32 0, i32 280), align 8
  %58 = load ptr, ptr %first, align 8
  call void @listDelNode(ptr noundef %57, ptr noundef %58)
  br label %while.cond, !llvm.loop !5

while.end:                                        ; preds = %if.then26, %if.then21, %if.then, %land.end
  %59 = load i64, ptr getelementptr inbounds (%struct.redisServer, ptr @server, i32 0, i32 262), align 8
  %60 = load ptr, ptr getelementptr inbounds (%struct.redisServer, ptr @server, i32 0, i32 268), align 8
  %histlen70 = getelementptr inbounds %struct.replBacklog, ptr %60, i32 0, i32 3
  %61 = load i64, ptr %histlen70, align 8
  %sub71 = sub nsw i64 %59, %61
  %add72 = add nsw i64 %sub71, 1
  %62 = load ptr, ptr getelementptr inbounds (%struct.redisServer, ptr @server, i32 0, i32 268), align 8
  %offset = getelementptr inbounds %struct.replBacklog, ptr %62, i32 0, i32 4
  store i64 %add72, ptr %offset, align 8
  ret void
}