; Function Attrs: nounwind uwtable
define dso_local void @incrementalTrimReplicationBacklog(i64 noundef %max_blocks) local_unnamed_addr #0 {
entry:
  %encoded_offset = alloca i64, align 8
  %0 = load ptr, ptr getelementptr inbounds (%struct.redisServer, ptr @server, i64 0, i32 268), align 8
  %cmp.not = icmp eq ptr %0, null
  br i1 %cmp.not, label %cond.false, label %while.cond.preheader

while.cond.preheader:                             ; preds = %entry
  %histlen25 = getelementptr inbounds i8, ptr %0, i64 24
  %1 = load i64, ptr %histlen25, align 8
  %2 = load i64, ptr getelementptr inbounds (%struct.redisServer, ptr @server, i64 0, i32 269), align 8
  %cmp226 = icmp sgt i64 %1, %2
  %cmp427 = icmp ne i64 %max_blocks, 0
  %3 = and i1 %cmp226, %cmp427
  br i1 %3, label %while.body, label %while.end

cond.false:                                       ; preds = %entry
  tail call void @_serverAssert(ptr noundef nonnull @.str.6, ptr noundef nonnull @.str.3, i32 noundef 259) #21
  tail call void @abort() #24
  unreachable

while.body:                                       ; preds = %while.cond.preheader, %cond.end66
  %4 = phi i64 [ %32, %cond.end66 ], [ %2, %while.cond.preheader ]
  %5 = phi i64 [ %31, %cond.end66 ], [ %1, %while.cond.preheader ]
  %6 = phi ptr [ %30, %cond.end66 ], [ %0, %while.cond.preheader ]
  %trimmed_blocks.028 = phi i64 [ %inc, %cond.end66 ], [ 0, %while.cond.preheader ]
  %7 = load ptr, ptr getelementptr inbounds (%struct.redisServer, ptr @server, i64 0, i32 280), align 8
  %len = getelementptr inbounds i8, ptr %7, i64 40
  %8 = load i64, ptr %len, align 8
  %cmp6 = icmp ult i64 %8, 2
  br i1 %cmp6, label %while.end, label %if.end

if.end:                                           ; preds = %while.body
  %9 = load ptr, ptr %7, align 8
  %10 = load ptr, ptr %6, align 8
  %cmp8 = icmp eq ptr %9, %10
  br i1 %cmp8, label %cond.end18, label %cond.false17

cond.false17:                                     ; preds = %if.end
  call void @_serverAssert(ptr noundef nonnull @.str.7, ptr noundef nonnull @.str.3, i32 noundef 275) #21
  call void @abort() #24
  unreachable

cond.end18:                                       ; preds = %if.end
  %value = getelementptr inbounds i8, ptr %9, i64 16
  %11 = load ptr, ptr %value, align 8
  %12 = load i32, ptr %11, align 8
  %cmp19.not = icmp eq i32 %12, 1
  br i1 %cmp19.not, label %if.end22, label %while.end

if.end22:                                         ; preds = %cond.end18
  %size = getelementptr inbounds i8, ptr %11, i64 24
  %13 = load i64, ptr %size, align 8
  %sub = sub nsw i64 %5, %13
  %cmp24.not = icmp sgt i64 %sub, %4
  br i1 %cmp24.not, label %if.end27, label %while.end

if.end27:                                         ; preds = %if.end22
  store i32 0, ptr %11, align 8
  %inc = add nuw i64 %trimmed_blocks.028, 1
  %14 = load ptr, ptr getelementptr inbounds (%struct.redisServer, ptr @server, i64 0, i32 268), align 8
  %histlen30 = getelementptr inbounds i8, ptr %14, i64 24
  %15 = load i64, ptr %histlen30, align 8
  %sub31 = sub i64 %15, %13
  store i64 %sub31, ptr %histlen30, align 8
  %next32 = getelementptr inbounds i8, ptr %9, i64 8
  %16 = load ptr, ptr %next32, align 8
  %17 = load ptr, ptr getelementptr inbounds (%struct.redisServer, ptr @server, i64 0, i32 268), align 8
  store ptr %16, ptr %17, align 8
  %18 = load ptr, ptr getelementptr inbounds (%struct.redisServer, ptr @server, i64 0, i32 268), align 8
  %19 = load ptr, ptr %18, align 8
  %cmp35.not = icmp eq ptr %19, null
  br i1 %cmp35.not, label %cond.false44, label %cond.end45

cond.false44:                                     ; preds = %if.end27
  call void @_serverAssert(ptr noundef nonnull @.str.8, ptr noundef nonnull @.str.3, i32 noundef 292) #21
  call void @abort() #24
  unreachable

cond.end45:                                       ; preds = %if.end27
  %value46 = getelementptr inbounds i8, ptr %16, i64 16
  %20 = load ptr, ptr %value46, align 8
  %21 = load i32, ptr %20, align 8
  %inc48 = add nsw i32 %21, 1
  store i32 %inc48, ptr %20, align 8
  %repl_offset = getelementptr inbounds i8, ptr %11, i64 16
  %22 = load i64, ptr %repl_offset, align 8
  %call = call i64 @intrev64(i64 noundef %22) #21
  store i64 %call, ptr %encoded_offset, align 8
  %23 = load ptr, ptr getelementptr inbounds (%struct.redisServer, ptr @server, i64 0, i32 268), align 8
  %blocks_index = getelementptr inbounds i8, ptr %23, i64 16
  %24 = load ptr, ptr %blocks_index, align 8
  %call49 = call i32 @raxRemove(ptr noundef %24, ptr noundef nonnull %encoded_offset, i64 noundef 8, ptr noundef null) #21
  %25 = load i32, ptr %11, align 8
  %cmp51 = icmp eq i32 %25, 0
  br i1 %cmp51, label %land.rhs53, label %cond.false65

land.rhs53:                                       ; preds = %cond.end45
  %used = getelementptr inbounds i8, ptr %11, i64 32
  %26 = load i64, ptr %used, align 8
  %27 = load i64, ptr %size, align 8
  %cmp55 = icmp eq i64 %26, %27
  br i1 %cmp55, label %cond.end66, label %cond.false65

cond.false65:                                     ; preds = %cond.end45, %land.rhs53
  call void @_serverAssert(ptr noundef nonnull @.str.9, ptr noundef nonnull @.str.3, i32 noundef 302) #21
  call void @abort() #24
  unreachable

cond.end66:                                       ; preds = %land.rhs53
  %28 = load i64, ptr getelementptr inbounds (%struct.redisServer, ptr @server, i64 0, i32 279), align 8
  %reass.sub = sub i64 %28, %26
  %sub69 = add i64 %reass.sub, -64
  store i64 %sub69, ptr getelementptr inbounds (%struct.redisServer, ptr @server, i64 0, i32 279), align 8
  %29 = load ptr, ptr getelementptr inbounds (%struct.redisServer, ptr @server, i64 0, i32 280), align 8
  call void @listDelNode(ptr noundef %29, ptr noundef nonnull %9) #21
  %30 = load ptr, ptr getelementptr inbounds (%struct.redisServer, ptr @server, i64 0, i32 268), align 8
  %histlen = getelementptr inbounds i8, ptr %30, i64 24
  %31 = load i64, ptr %histlen, align 8
  %32 = load i64, ptr getelementptr inbounds (%struct.redisServer, ptr @server, i64 0, i32 269), align 8
  %cmp2 = icmp sgt i64 %31, %32
  %cmp4 = icmp ult i64 %inc, %max_blocks
  %33 = select i1 %cmp2, i1 %cmp4, i1 false
  br i1 %33, label %while.body, label %while.end, !llvm.loop !5

while.end:                                        ; preds = %cond.end66, %while.body, %cond.end18, %if.end22, %while.cond.preheader
  %.lcssa21 = phi ptr [ %0, %while.cond.preheader ], [ %6, %if.end22 ], [ %6, %cond.end18 ], [ %6, %while.body ], [ %30, %cond.end66 ]
  %.lcssa = phi i64 [ %1, %while.cond.preheader ], [ %5, %if.end22 ], [ %5, %cond.end18 ], [ %5, %while.body ], [ %31, %cond.end66 ]
  %34 = load i64, ptr getelementptr inbounds (%struct.redisServer, ptr @server, i64 0, i32 262), align 8
  %reass.sub36 = sub i64 %34, %.lcssa
  %add72 = add i64 %reass.sub36, 1
  %offset = getelementptr inbounds i8, ptr %.lcssa21, i64 32
  store i64 %add72, ptr %offset, align 8
  ret void
}